target datalayout = "e-m:e-p270:32:32-p271:32:32-p272:64:64-i64:64-i128:128-f80:128-n8:16:32:64-S128"
target triple = "x86_64-pc-linux-gnu"

%struct.mbedtls_mpi = type { ptr, i16, i16 }

; Function Attrs: inlinehint nounwind uwtable
define internal i32 @mbedtls_ct_uint_if_else_0(i64 noundef %0, i32 noundef %1) #2 {
  %3 = alloca i64, align 8
  %4 = alloca i32, align 4
  store i64 %0, ptr %3, align 8, !tbaa !15
  store i32 %1, ptr %4, align 4, !tbaa !19
  %5 = load i64, ptr %3, align 8, !tbaa !15
  %6 = load i32, ptr %4, align 4, !tbaa !19
  %7 = zext i32 %6 to i64
  %8 = and i64 %5, %7
  %9 = trunc i64 %8 to i32
  ret i32 %9
}

; Function Attrs: inlinehint nounwind uwtable
define internal i64 @mbedtls_ct_bool_or(i64 noundef %0, i64 noundef %1) #2 {
  %3 = alloca i64, align 8
  %4 = alloca i64, align 8
  store i64 %0, ptr %3, align 8, !tbaa !15
  store i64 %1, ptr %4, align 8, !tbaa !15
  %5 = load i64, ptr %3, align 8, !tbaa !15
  %6 = load i64, ptr %4, align 8, !tbaa !15
  %7 = or i64 %5, %6
  ret i64 %7
}

; Function Attrs: inlinehint nounwind uwtable
define internal i64 @mbedtls_ct_bool_not(i64 noundef %0) #2 {
  %2 = alloca i64, align 8
  store i64 %0, ptr %2, align 8, !tbaa !15
  %3 = load i64, ptr %2, align 8, !tbaa !15
  %4 = xor i64 %3, -1
  ret i64 %4
}

; Function Attrs: inlinehint nounwind uwtable
define internal i64 @mbedtls_ct_size_if_else_0(i64 noundef %0, i64 noundef %1) #2 {
  %3 = alloca i64, align 8
  %4 = alloca i64, align 8
  store i64 %0, ptr %3, align 8, !tbaa !15
  store i64 %1, ptr %4, align 8, !tbaa !15
  %5 = load i64, ptr %3, align 8, !tbaa !15
  %6 = load i64, ptr %4, align 8, !tbaa !15
  %7 = and i64 %5, %6
  ret i64 %7
}

; Function Attrs: inlinehint nounwind uwtable
define internal i64 @mbedtls_ct_bool_and(i64 noundef %0, i64 noundef %1) #2 {
  %3 = alloca i64, align 8
  %4 = alloca i64, align 8
  store i64 %0, ptr %3, align 8, !tbaa !15
  store i64 %1, ptr %4, align 8, !tbaa !15
  %5 = load i64, ptr %3, align 8, !tbaa !15
  %6 = load i64, ptr %4, align 8, !tbaa !15
  %7 = and i64 %5, %6
  ret i64 %7
}

; Function Attrs: inlinehint nounwind uwtable
define internal i64 @mbedtls_ct_bool_ne(i64 noundef %0, i64 noundef %1) #2 {
  %3 = alloca i64, align 8
  %4 = alloca i64, align 8
  store i64 %0, ptr %3, align 8, !tbaa !15
  store i64 %1, ptr %4, align 8, !tbaa !15
  %5 = load i64, ptr %3, align 8, !tbaa !15
  %6 = load i64, ptr %4, align 8, !tbaa !15
  %7 = xor i64 %5, %6
  ret i64 %7
}

; Function Attrs: inlinehint nounwind uwtable
define internal i64 @mbedtls_ct_bool(i64 noundef %0) #2 {
  %2 = alloca i64, align 8
  %3 = alloca i64, align 8
  store i64 %0, ptr %2, align 8, !tbaa !15
  call void @llvm.lifetime.start.p0(i64 8, ptr %3) #9
  %4 = load i64, ptr %2, align 8, !tbaa !15
  %5 = call i64 asm sideeffect "mov  $1, $0                                \0A\09neg  $0                                      \0A\09or   $1, $0                                \0A\09sar  $$63, $0                                 \0A\09", "=&{ax},{di},~{dirflag},~{fpsr},~{flags}"(i64 %4) #9, !srcloc !21
  store i64 %5, ptr %3, align 8, !tbaa !15
  %6 = load i64, ptr %3, align 8, !tbaa !15
  call void @llvm.lifetime.end.p0(i64 8, ptr %3) #9
  ret i64 %6
}

; Function Attrs: nounwind uwtable
define hidden i32 @mbedtls_mpi_lt_mpi_ct(ptr noundef %0, ptr noundef %1, ptr noundef %2) #0 {
  %4 = alloca i32, align 4
  %5 = alloca ptr, align 8
  %6 = alloca ptr, align 8
  %7 = alloca ptr, align 8
  %8 = alloca i64, align 8
  %9 = alloca i64, align 8
  %10 = alloca i64, align 8
  %11 = alloca i64, align 8
  %12 = alloca i32, align 4
  %13 = alloca [2 x ptr], align 16
  %14 = alloca i64, align 8
  %15 = alloca i64, align 8
  store ptr %0, ptr %5, align 8, !tbaa !3
  store ptr %1, ptr %6, align 8, !tbaa !3
  store ptr %2, ptr %7, align 8, !tbaa !8
  call void @llvm.lifetime.start.p0(i64 8, ptr %8) #9
  call void @llvm.lifetime.start.p0(i64 8, ptr %9) #9
  call void @llvm.lifetime.start.p0(i64 8, ptr %10) #9
  call void @llvm.lifetime.start.p0(i64 8, ptr %11) #9
  %16 = load ptr, ptr %5, align 8, !tbaa !3
  %17 = getelementptr inbounds nuw %struct.mbedtls_mpi, ptr %16, i32 0, i32 2
  %18 = load i16, ptr %17, align 2, !tbaa !10
  %19 = zext i16 %18 to i32
  %20 = load ptr, ptr %6, align 8, !tbaa !3
  %21 = getelementptr inbounds nuw %struct.mbedtls_mpi, ptr %20, i32 0, i32 2
  %22 = load i16, ptr %21, align 2, !tbaa !10
  %23 = zext i16 %22 to i32
  %24 = icmp ne i32 %19, %23
  br i1 %24, label %25, label %26

25:                                               ; preds = %3
  store i32 -4, ptr %4, align 4
  store i32 1, ptr %12, align 4
  br label %79

26:                                               ; preds = %3
  %27 = load ptr, ptr %5, align 8, !tbaa !3
  %28 = getelementptr inbounds nuw %struct.mbedtls_mpi, ptr %27, i32 0, i32 1
  %29 = load i16, ptr %28, align 8, !tbaa !14
  %30 = sext i16 %29 to i32
  %31 = and i32 %30, 2
  %32 = ashr i32 %31, 1
  %33 = sext i32 %32 to i64
  %34 = call i64 @mbedtls_ct_bool(i64 noundef %33)
  store i64 %34, ptr %9, align 8, !tbaa !15
  %35 = load ptr, ptr %6, align 8, !tbaa !3
  %36 = getelementptr inbounds nuw %struct.mbedtls_mpi, ptr %35, i32 0, i32 1
  %37 = load i16, ptr %36, align 8, !tbaa !14
  %38 = sext i16 %37 to i32
  %39 = and i32 %38, 2
  %40 = ashr i32 %39, 1
  %41 = sext i32 %40 to i64
  %42 = call i64 @mbedtls_ct_bool(i64 noundef %41)
  store i64 %42, ptr %10, align 8, !tbaa !15
  %43 = load i64, ptr %9, align 8, !tbaa !15
  %44 = load i64, ptr %10, align 8, !tbaa !15
  %45 = call i64 @mbedtls_ct_bool_ne(i64 noundef %43, i64 noundef %44)
  store i64 %45, ptr %8, align 8, !tbaa !15
  %46 = load i64, ptr %8, align 8, !tbaa !15
  %47 = load i64, ptr %9, align 8, !tbaa !15
  %48 = call i64 @mbedtls_ct_bool_and(i64 noundef %46, i64 noundef %47)
  store i64 %48, ptr %11, align 8, !tbaa !15
  call void @llvm.lifetime.start.p0(i64 16, ptr %13) #9
  %49 = load ptr, ptr %5, align 8, !tbaa !3
  %50 = getelementptr inbounds nuw %struct.mbedtls_mpi, ptr %49, i32 0, i32 0
  %51 = load ptr, ptr %50, align 8, !tbaa !17
  store ptr %51, ptr %13, align 8, !tbaa !18
  %52 = getelementptr inbounds ptr, ptr %13, i64 1
  %53 = load ptr, ptr %6, align 8, !tbaa !3
  %54 = getelementptr inbounds nuw %struct.mbedtls_mpi, ptr %53, i32 0, i32 0
  %55 = load ptr, ptr %54, align 8, !tbaa !17
  store ptr %55, ptr %52, align 8, !tbaa !18
  call void @llvm.lifetime.start.p0(i64 8, ptr %14) #9
  %56 = load i64, ptr %9, align 8, !tbaa !15
  %57 = call i64 @mbedtls_ct_size_if_else_0(i64 noundef %56, i64 noundef 1)
  store i64 %57, ptr %14, align 8, !tbaa !15
  call void @llvm.lifetime.start.p0(i64 8, ptr %15) #9
  %58 = load i64, ptr %14, align 8, !tbaa !15
  %59 = getelementptr inbounds nuw [2 x ptr], ptr %13, i64 0, i64 %58
  %60 = load ptr, ptr %59, align 8, !tbaa !18
  %61 = load i64, ptr %14, align 8, !tbaa !15
  %62 = xor i64 %61, 1
  %63 = getelementptr inbounds nuw [2 x ptr], ptr %13, i64 0, i64 %62
  %64 = load ptr, ptr %63, align 8, !tbaa !18
  %65 = load ptr, ptr %5, align 8, !tbaa !3
  %66 = getelementptr inbounds nuw %struct.mbedtls_mpi, ptr %65, i32 0, i32 2
  %67 = load i16, ptr %66, align 2, !tbaa !10
  %68 = zext i16 %67 to i64
  %69 = call i64 @mbedtls_mpi_core_lt_ct(ptr noundef %60, ptr noundef %64, i64 noundef %68)
  store i64 %69, ptr %15, align 8, !tbaa !15
  %70 = load i64, ptr %11, align 8, !tbaa !15
  %71 = load i64, ptr %8, align 8, !tbaa !15
  %72 = call i64 @mbedtls_ct_bool_not(i64 noundef %71)
  %73 = load i64, ptr %15, align 8, !tbaa !15
  %74 = call i64 @mbedtls_ct_bool_and(i64 noundef %72, i64 noundef %73)
  %75 = call i64 @mbedtls_ct_bool_or(i64 noundef %70, i64 noundef %74)
  store i64 %75, ptr %11, align 8, !tbaa !15
  %76 = load i64, ptr %11, align 8, !tbaa !15
  %77 = call i32 @mbedtls_ct_uint_if_else_0(i64 noundef %76, i32 noundef 1)
  %78 = load ptr, ptr %7, align 8, !tbaa !8
  store i32 %77, ptr %78, align 4, !tbaa !19
  store i32 0, ptr %4, align 4
  store i32 1, ptr %12, align 4
  call void @llvm.lifetime.end.p0(i64 8, ptr %15) #9
  call void @llvm.lifetime.end.p0(i64 8, ptr %14) #9
  call void @llvm.lifetime.end.p0(i64 16, ptr %13) #9
  br label %79

79:                                               ; preds = %26, %25
  call void @llvm.lifetime.end.p0(i64 8, ptr %11) #9
  call void @llvm.lifetime.end.p0(i64 8, ptr %10) #9
  call void @llvm.lifetime.end.p0(i64 8, ptr %9) #9
  call void @llvm.lifetime.end.p0(i64 8, ptr %8) #9
  %80 = load i32, ptr %4, align 4
  ret i32 %80
}