; Function Attrs: nounwind uwtable
define hidden range(i32 -4, 1) i32 @mbedtls_mpi_lt_mpi_ct(ptr noundef readonly captures(none) %0, ptr noundef readonly captures(none) %1, ptr noundef writeonly captures(none) %2) local_unnamed_addr #0 {
  %4 = alloca [2 x ptr], align 16
  %5 = getelementptr inbounds nuw i8, ptr %0, i64 10
  %6 = load i16, ptr %5, align 2, !tbaa !3
  %7 = getelementptr inbounds nuw i8, ptr %1, i64 10
  %8 = load i16, ptr %7, align 2, !tbaa !3
  %.not = icmp eq i16 %6, %8
  br i1 %.not, label %9, label %41

9:                                                ; preds = %3
  %10 = getelementptr inbounds nuw i8, ptr %0, i64 8
  %11 = load i16, ptr %10, align 8, !tbaa !10
  %12 = lshr i16 %11, 1
  %13 = and i16 %12, 1
  %14 = zext nneg i16 %13 to i64
  %15 = tail call i64 asm sideeffect "mov  $1, $0                                \0A\09neg  $0                                      \0A\09or   $1, $0                                \0A\09sar  $$63, $0                                 \0A\09", "=&{ax},{di},~{dirflag},~{fpsr},~{flags}"(i64 range(i64 0, 256) %14) #16, !srcloc !11
  %16 = getelementptr inbounds nuw i8, ptr %1, i64 8
  %17 = load i16, ptr %16, align 8, !tbaa !10
  %18 = lshr i16 %17, 1
  %19 = and i16 %18, 1
  %20 = zext nneg i16 %19 to i64
  %21 = tail call i64 asm sideeffect "mov  $1, $0                                \0A\09neg  $0                                      \0A\09or   $1, $0                                \0A\09sar  $$63, $0                                 \0A\09", "=&{ax},{di},~{dirflag},~{fpsr},~{flags}"(i64 range(i64 0, 256) %20) #16, !srcloc !11
  %22 = xor i64 %21, %15
  %23 = and i64 %22, %15
  call void @llvm.lifetime.start.p0(i64 16, ptr nonnull %4) #16
  %24 = load ptr, ptr %0, align 8, !tbaa !12
  store ptr %24, ptr %4, align 16, !tbaa !13
  %25 = getelementptr inbounds nuw i8, ptr %4, i64 8
  %26 = load ptr, ptr %1, align 8, !tbaa !12
  store ptr %26, ptr %25, align 8, !tbaa !13
  %27 = and i64 %15, 1
  %28 = getelementptr inbounds nuw [2 x ptr], ptr %4, i64 0, i64 %27
  %29 = load ptr, ptr %28, align 8, !tbaa !13
  %30 = xor i64 %27, 1
  %31 = getelementptr inbounds nuw [2 x ptr], ptr %4, i64 0, i64 %30
  %32 = load ptr, ptr %31, align 8, !tbaa !13
  %33 = load i16, ptr %5, align 2, !tbaa !3
  %34 = zext i16 %33 to i64
  %35 = tail call i64 @mbedtls_mpi_core_lt_ct(ptr noundef %29, ptr noundef %32, i64 noundef %34) #16
  %36 = xor i64 %22, -1
  %37 = and i64 %35, %36
  %38 = or i64 %37, %23
  %39 = trunc i64 %38 to i32
  %40 = and i32 %39, 1
  store i32 %40, ptr %2, align 4, !tbaa !14
  call void @llvm.lifetime.end.p0(i64 16, ptr nonnull %4) #16
  br label %41

41:                                               ; preds = %3, %9
  %.0 = phi i32 [ 0, %9 ], [ -4, %3 ]
  ret i32 %.0
}